target datalayout = "e-m:e-p270:32:32-p271:32:32-p272:64:64-i64:64-i128:128-f80:128-n8:16:32:64-S128"
target triple = "x86_64-pc-linux-gnu"

%struct.opj_bio = type { ptr, ptr, ptr, i32, i32 }

; Function Attrs: nounwind uwtable
define hidden void @opj_bio_init_dec(ptr noundef %0, ptr noundef %1, i32 noundef %2) #0 {
  %4 = alloca ptr, align 8
  %5 = alloca ptr, align 8
  %6 = alloca i32, align 4
  store ptr %0, ptr %4, align 8, !tbaa !3
  store ptr %1, ptr %5, align 8, !tbaa !13
  store i32 %2, ptr %6, align 4, !tbaa !14
  %7 = load ptr, ptr %5, align 8, !tbaa !13
  %8 = load ptr, ptr %4, align 8, !tbaa !3
  %9 = getelementptr inbounds nuw %struct.opj_bio, ptr %8, i32 0, i32 0
  store ptr %7, ptr %9, align 8, !tbaa !12
  %10 = load ptr, ptr %5, align 8, !tbaa !13
  %11 = load i32, ptr %6, align 4, !tbaa !14
  %12 = zext i32 %11 to i64
  %13 = getelementptr inbounds nuw i8, ptr %10, i64 %12
  %14 = load ptr, ptr %4, align 8, !tbaa !3
  %15 = getelementptr inbounds nuw %struct.opj_bio, ptr %14, i32 0, i32 1
  store ptr %13, ptr %15, align 8, !tbaa !15
  %16 = load ptr, ptr %5, align 8, !tbaa !13
  %17 = load ptr, ptr %4, align 8, !tbaa !3
  %18 = getelementptr inbounds nuw %struct.opj_bio, ptr %17, i32 0, i32 2
  store ptr %16, ptr %18, align 8, !tbaa !8
  %19 = load ptr, ptr %4, align 8, !tbaa !3
  %20 = getelementptr inbounds nuw %struct.opj_bio, ptr %19, i32 0, i32 3
  store i32 0, ptr %20, align 8, !tbaa !16
  %21 = load ptr, ptr %4, align 8, !tbaa !3
  %22 = getelementptr inbounds nuw %struct.opj_bio, ptr %21, i32 0, i32 4
  store i32 0, ptr %22, align 4, !tbaa !17
  ret void
}